target datalayout = "e-m:e-p270:32:32-p271:32:32-p272:64:64-i64:64-i128:128-f80:128-n8:16:32:64-S128"
target triple = "x86_64-pc-linux-gnu"

%struct.prov_rc2_ctx_st = type { %struct.prov_cipher_ctx_st, %union.anon.0, i64 }
%struct.prov_cipher_ctx_st = type { [16 x i8], [16 x i8], [16 x i8], ptr, %union.anon, i32, i64, i64, i64, i64, i32, i8, i32, ptr, i32, i64, i32, i64, i32, ptr, ptr, ptr }
%union.anon = type { ptr }
%union.anon.0 = type { double, [248 x i8] }
%struct.ossl_param_st = type { ptr, i32, ptr, i64, i64 }

@.str = private unnamed_addr constant [58 x i8] c"../openssl/providers/implementations/ciphers/cipher_rc2.c\00", align 1
@.str.1 = private unnamed_addr constant [8 x i8] c"keybits\00", align 1
@__func__.rc2_get_ctx_params = private unnamed_addr constant [19 x i8] c"rc2_get_ctx_params\00", align 1
@.str.2 = private unnamed_addr constant [20 x i8] c"algorithm-id-params\00", align 1
@.str.3 = private unnamed_addr constant [13 x i8] c"alg_id_param\00", align 1
@__func__.rc2_keybits_to_magic = private unnamed_addr constant [21 x i8] c"rc2_keybits_to_magic\00", align 1

; Function Attrs: nounwind uwtable
define internal i32 @rc2_keybits_to_magic(i32 noundef %0) #0 {
  %2 = alloca i32, align 4
  %3 = alloca i32, align 4
  store i32 %0, ptr %3, align 4, !tbaa !19
  %4 = load i32, ptr %3, align 4, !tbaa !19
  switch i32 %4, label %8 [
    i32 128, label %5
    i32 64, label %6
    i32 40, label %7
  ]

5:                                                ; preds = %1
  store i32 58, ptr %2, align 4
  br label %9

6:                                                ; preds = %1
  store i32 120, ptr %2, align 4
  br label %9

7:                                                ; preds = %1
  store i32 160, ptr %2, align 4
  br label %9

8:                                                ; preds = %1
  call void @ERR_new()
  call void @ERR_set_debug(ptr noundef @.str, i32 noundef 70, ptr noundef @__func__.rc2_keybits_to_magic)
  call void (i32, i32, ptr, ...) @ERR_set_error(i32 noundef 57, i32 noundef 153, ptr noundef null)
  store i32 0, ptr %2, align 4
  br label %9

9:                                                ; preds = %8, %7, %6, %5
  %10 = load i32, ptr %2, align 4
  ret i32 %10
}

; Function Attrs: nounwind uwtable
define internal i32 @rc2_get_ctx_params(ptr noundef %0, ptr noundef %1) #0 {
  %3 = alloca i32, align 4
  %4 = alloca ptr, align 8
  %5 = alloca ptr, align 8
  %6 = alloca ptr, align 8
  %7 = alloca ptr, align 8
  %8 = alloca ptr, align 8
  %9 = alloca ptr, align 8
  %10 = alloca i32, align 4
  %11 = alloca i64, align 8
  %12 = alloca i32, align 4
  %13 = alloca ptr, align 8
  %14 = alloca ptr, align 8
  %15 = alloca ptr, align 8
  %16 = alloca ptr, align 8
  %17 = alloca ptr, align 8
  store ptr %0, ptr %4, align 8, !tbaa !3
  store ptr %1, ptr %5, align 8, !tbaa !24
  call void @llvm.lifetime.start.p0(i64 8, ptr %6) #5
  %18 = load ptr, ptr %4, align 8, !tbaa !3
  store ptr %18, ptr %6, align 8, !tbaa !7
  call void @llvm.lifetime.start.p0(i64 8, ptr %7) #5
  call void @llvm.lifetime.start.p0(i64 8, ptr %8) #5
  call void @llvm.lifetime.start.p0(i64 8, ptr %9) #5
  %19 = load ptr, ptr %4, align 8, !tbaa !3
  %20 = load ptr, ptr %5, align 8, !tbaa !24
  %21 = call i32 @ossl_cipher_generic_get_ctx_params(ptr noundef %19, ptr noundef %20)
  %22 = icmp ne i32 %21, 0
  br i1 %22, label %24, label %23

23:                                               ; preds = %2
  store i32 0, ptr %3, align 4
  store i32 1, ptr %10, align 4
  br label %163

24:                                               ; preds = %2
  %25 = load ptr, ptr %5, align 8, !tbaa !24
  %26 = call ptr @OSSL_PARAM_locate(ptr noundef %25, ptr noundef @.str.1)
  store ptr %26, ptr %7, align 8, !tbaa !24
  %27 = load ptr, ptr %7, align 8, !tbaa !24
  %28 = icmp ne ptr %27, null
  br i1 %28, label %29, label %37

29:                                               ; preds = %24
  %30 = load ptr, ptr %7, align 8, !tbaa !24
  %31 = load ptr, ptr %6, align 8, !tbaa !7
  %32 = getelementptr inbounds nuw %struct.prov_rc2_ctx_st, ptr %31, i32 0, i32 2
  %33 = load i64, ptr %32, align 8, !tbaa !9
  %34 = call i32 @OSSL_PARAM_set_size_t(ptr noundef %30, i64 noundef %33)
  %35 = icmp ne i32 %34, 0
  br i1 %35, label %37, label %36

36:                                               ; preds = %29
  call void @ERR_new()
  call void @ERR_set_debug(ptr noundef @.str, i32 noundef 115, ptr noundef @__func__.rc2_get_ctx_params)
  call void (i32, i32, ptr, ...) @ERR_set_error(i32 noundef 57, i32 noundef 104, ptr noundef null)
  store i32 0, ptr %3, align 4
  store i32 1, ptr %10, align 4
  br label %163

37:                                               ; preds = %29, %24
  %38 = load ptr, ptr %5, align 8, !tbaa !24
  %39 = call ptr @OSSL_PARAM_locate(ptr noundef %38, ptr noundef @.str.2)
  store ptr %39, ptr %8, align 8, !tbaa !24
  %40 = load ptr, ptr %5, align 8, !tbaa !24
  %41 = call ptr @OSSL_PARAM_locate(ptr noundef %40, ptr noundef @.str.3)
  store ptr %41, ptr %9, align 8, !tbaa !24
  %42 = load ptr, ptr %8, align 8, !tbaa !24
  %43 = icmp ne ptr %42, null
  br i1 %43, label %47, label %44

44:                                               ; preds = %37
  %45 = load ptr, ptr %9, align 8, !tbaa !24
  %46 = icmp ne ptr %45, null
  br i1 %46, label %47, label %162

47:                                               ; preds = %44, %37
  call void @llvm.lifetime.start.p0(i64 8, ptr %11) #5
  call void @llvm.lifetime.start.p0(i64 4, ptr %12) #5
  call void @llvm.lifetime.start.p0(i64 8, ptr %13) #5
  call void @llvm.lifetime.start.p0(i64 8, ptr %14) #5
  %48 = load ptr, ptr %8, align 8, !tbaa !24
  %49 = icmp eq ptr %48, null
  br i1 %49, label %50, label %51

50:                                               ; preds = %47
  br label %55

51:                                               ; preds = %47
  %52 = load ptr, ptr %8, align 8, !tbaa !24
  %53 = getelementptr inbounds nuw %struct.ossl_param_st, ptr %52, i32 0, i32 2
  %54 = load ptr, ptr %53, align 8, !tbaa !26
  br label %55

55:                                               ; preds = %51, %50
  %56 = phi ptr [ null, %50 ], [ %54, %51 ]
  store ptr %56, ptr %14, align 8, !tbaa !21
  call void @llvm.lifetime.start.p0(i64 8, ptr %15) #5
  %57 = load ptr, ptr %9, align 8, !tbaa !24
  %58 = icmp eq ptr %57, null
  br i1 %58, label %59, label %60

59:                                               ; preds = %55
  br label %64

60:                                               ; preds = %55
  %61 = load ptr, ptr %9, align 8, !tbaa !24
  %62 = getelementptr inbounds nuw %struct.ossl_param_st, ptr %61, i32 0, i32 2
  %63 = load ptr, ptr %62, align 8, !tbaa !26
  br label %64

64:                                               ; preds = %60, %59
  %65 = phi ptr [ null, %59 ], [ %63, %60 ]
  store ptr %65, ptr %15, align 8, !tbaa !21
  call void @llvm.lifetime.start.p0(i64 8, ptr %16) #5
  %66 = load ptr, ptr %14, align 8, !tbaa !21
  %67 = icmp eq ptr %66, null
  br i1 %67, label %68, label %69

68:                                               ; preds = %64
  br label %70

69:                                               ; preds = %64
  br label %70

70:                                               ; preds = %69, %68
  %71 = phi ptr [ null, %68 ], [ %14, %69 ]
  store ptr %71, ptr %16, align 8, !tbaa !28
  call void @llvm.lifetime.start.p0(i64 8, ptr %17) #5
  %72 = load ptr, ptr %15, align 8, !tbaa !21
  %73 = icmp eq ptr %72, null
  br i1 %73, label %74, label %75

74:                                               ; preds = %70
  br label %76

75:                                               ; preds = %70
  br label %76

76:                                               ; preds = %75, %74
  %77 = phi ptr [ null, %74 ], [ %15, %75 ]
  store ptr %77, ptr %17, align 8, !tbaa !28
  %78 = load ptr, ptr %8, align 8, !tbaa !24
  %79 = icmp ne ptr %78, null
  br i1 %79, label %80, label %85

80:                                               ; preds = %76
  %81 = load ptr, ptr %8, align 8, !tbaa !24
  %82 = getelementptr inbounds nuw %struct.ossl_param_st, ptr %81, i32 0, i32 1
  %83 = load i32, ptr %82, align 8, !tbaa !30
  %84 = icmp ne i32 %83, 5
  br i1 %84, label %93, label %85

85:                                               ; preds = %80, %76
  %86 = load ptr, ptr %9, align 8, !tbaa !24
  %87 = icmp ne ptr %86, null
  br i1 %87, label %88, label %94

88:                                               ; preds = %85
  %89 = load ptr, ptr %9, align 8, !tbaa !24
  %90 = getelementptr inbounds nuw %struct.ossl_param_st, ptr %89, i32 0, i32 1
  %91 = load i32, ptr %90, align 8, !tbaa !30
  %92 = icmp ne i32 %91, 5
  br i1 %92, label %93, label %94

93:                                               ; preds = %88, %80
  call void @ERR_new()
  call void @ERR_set_debug(ptr noundef @.str, i32 noundef 131, ptr noundef @__func__.rc2_get_ctx_params)
  call void (i32, i32, ptr, ...) @ERR_set_error(i32 noundef 57, i32 noundef 104, ptr noundef null)
  store i32 0, ptr %3, align 4
  store i32 1, ptr %10, align 4
  br label %159

94:                                               ; preds = %88, %85
  %95 = call ptr @ASN1_TYPE_new()
  store ptr %95, ptr %13, align 8, !tbaa !31
  %96 = icmp eq ptr %95, null
  br i1 %96, label %97, label %98

97:                                               ; preds = %94
  call void @ERR_new()
  call void @ERR_set_debug(ptr noundef @.str, i32 noundef 135, ptr noundef @__func__.rc2_get_ctx_params)
  call void (i32, i32, ptr, ...) @ERR_set_error(i32 noundef 57, i32 noundef 524301, ptr noundef null)
  store i32 0, ptr %3, align 4
  store i32 1, ptr %10, align 4
  br label %159

98:                                               ; preds = %94
  %99 = load ptr, ptr %6, align 8, !tbaa !7
  %100 = getelementptr inbounds nuw %struct.prov_rc2_ctx_st, ptr %99, i32 0, i32 2
  %101 = load i64, ptr %100, align 8, !tbaa !9
  %102 = trunc i64 %101 to i32
  %103 = call i32 @rc2_keybits_to_magic(i32 noundef %102)
  %104 = sext i32 %103 to i64
  store i64 %104, ptr %11, align 8, !tbaa !20
  %105 = load ptr, ptr %13, align 8, !tbaa !31
  %106 = load i64, ptr %11, align 8, !tbaa !20
  %107 = load ptr, ptr %6, align 8, !tbaa !7
  %108 = getelementptr inbounds nuw %struct.prov_rc2_ctx_st, ptr %107, i32 0, i32 0
  %109 = getelementptr inbounds nuw %struct.prov_cipher_ctx_st, ptr %108, i32 0, i32 2
  %110 = getelementptr inbounds [16 x i8], ptr %109, i64 0, i64 0
  %111 = load ptr, ptr %6, align 8, !tbaa !7
  %112 = getelementptr inbounds nuw %struct.prov_rc2_ctx_st, ptr %111, i32 0, i32 0
  %113 = getelementptr inbounds nuw %struct.prov_cipher_ctx_st, ptr %112, i32 0, i32 7
  %114 = load i64, ptr %113, align 8, !tbaa !33
  %115 = trunc i64 %114 to i32
  %116 = call i32 @ASN1_TYPE_set_int_octetstring(ptr noundef %105, i64 noundef %106, ptr noundef %110, i32 noundef %115)
  %117 = icmp ne i32 %116, 0
  br i1 %117, label %120, label %118

118:                                              ; preds = %98
  %119 = load ptr, ptr %13, align 8, !tbaa !31
  call void @ASN1_TYPE_free(ptr noundef %119)
  call void @ERR_new()
  call void @ERR_set_debug(ptr noundef @.str, i32 noundef 144, ptr noundef @__func__.rc2_get_ctx_params)
  call void (i32, i32, ptr, ...) @ERR_set_error(i32 noundef 57, i32 noundef 524301, ptr noundef null)
  store i32 0, ptr %3, align 4
  store i32 1, ptr %10, align 4
  br label %159

120:                                              ; preds = %98
  %121 = load ptr, ptr %13, align 8, !tbaa !31
  %122 = load ptr, ptr %16, align 8, !tbaa !28
  %123 = call i32 @i2d_ASN1_TYPE(ptr noundef %121, ptr noundef %122)
  store i32 %123, ptr %12, align 4, !tbaa !19
  %124 = load ptr, ptr %8, align 8, !tbaa !24
  %125 = icmp ne ptr %124, null
  br i1 %125, label %126, label %134

126:                                              ; preds = %120
  %127 = load i32, ptr %12, align 4, !tbaa !19
  %128 = icmp sge i32 %127, 0
  br i1 %128, label %129, label %134

129:                                              ; preds = %126
  %130 = load i32, ptr %12, align 4, !tbaa !19
  %131 = sext i32 %130 to i64
  %132 = load ptr, ptr %8, align 8, !tbaa !24
  %133 = getelementptr inbounds nuw %struct.ossl_param_st, ptr %132, i32 0, i32 4
  store i64 %131, ptr %133, align 8, !tbaa !34
  br label %134

134:                                              ; preds = %129, %126, %120
  %135 = load ptr, ptr %14, align 8, !tbaa !21
  %136 = load ptr, ptr %15, align 8, !tbaa !21
  %137 = icmp ne ptr %135, %136
  br i1 %137, label %138, label %142

138:                                              ; preds = %134
  %139 = load ptr, ptr %13, align 8, !tbaa !31
  %140 = load ptr, ptr %17, align 8, !tbaa !28
  %141 = call i32 @i2d_ASN1_TYPE(ptr noundef %139, ptr noundef %140)
  store i32 %141, ptr %12, align 4, !tbaa !19
  br label %142

142:                                              ; preds = %138, %134
  %143 = load ptr, ptr %9, align 8, !tbaa !24
  %144 = icmp ne ptr %143, null
  br i1 %144, label %145, label %153

145:                                              ; preds = %142
  %146 = load i32, ptr %12, align 4, !tbaa !19
  %147 = icmp sge i32 %146, 0
  br i1 %147, label %148, label %153

148:                                              ; preds = %145
  %149 = load i32, ptr %12, align 4, !tbaa !19
  %150 = sext i32 %149 to i64
  %151 = load ptr, ptr %9, align 8, !tbaa !24
  %152 = getelementptr inbounds nuw %struct.ossl_param_st, ptr %151, i32 0, i32 4
  store i64 %150, ptr %152, align 8, !tbaa !34
  br label %153

153:                                              ; preds = %148, %145, %142
  %154 = load ptr, ptr %13, align 8, !tbaa !31
  call void @ASN1_TYPE_free(ptr noundef %154)
  %155 = load i32, ptr %12, align 4, !tbaa !19
  %156 = icmp slt i32 %155, 0
  br i1 %156, label %157, label %158

157:                                              ; preds = %153
  call void @ERR_new()
  call void @ERR_set_debug(ptr noundef @.str, i32 noundef 167, ptr noundef @__func__.rc2_get_ctx_params)
  call void (i32, i32, ptr, ...) @ERR_set_error(i32 noundef 57, i32 noundef 104, ptr noundef null)
  store i32 0, ptr %3, align 4
  store i32 1, ptr %10, align 4
  br label %159

158:                                              ; preds = %153
  store i32 0, ptr %10, align 4
  br label %159

159:                                              ; preds = %158, %157, %118, %97, %93
  call void @llvm.lifetime.end.p0(i64 8, ptr %17) #5
  call void @llvm.lifetime.end.p0(i64 8, ptr %16) #5
  call void @llvm.lifetime.end.p0(i64 8, ptr %15) #5
  call void @llvm.lifetime.end.p0(i64 8, ptr %14) #5
  call void @llvm.lifetime.end.p0(i64 8, ptr %13) #5
  call void @llvm.lifetime.end.p0(i64 4, ptr %12) #5
  call void @llvm.lifetime.end.p0(i64 8, ptr %11) #5
  %160 = load i32, ptr %10, align 4
  switch i32 %160, label %163 [
    i32 0, label %161
  ]

161:                                              ; preds = %159
  br label %162

162:                                              ; preds = %161, %44
  store i32 1, ptr %3, align 4
  store i32 1, ptr %10, align 4
  br label %163

163:                                              ; preds = %162, %159, %36, %23
  call void @llvm.lifetime.end.p0(i64 8, ptr %9) #5
  call void @llvm.lifetime.end.p0(i64 8, ptr %8) #5
  call void @llvm.lifetime.end.p0(i64 8, ptr %7) #5
  call void @llvm.lifetime.end.p0(i64 8, ptr %6) #5
  %164 = load i32, ptr %3, align 4
  ret i32 %164
}