; Function Attrs: nounwind uwtable
define internal range(i32 0, 2) i32 @rc2_get_ctx_params(ptr noundef %0, ptr noundef %1) #0 {
  %3 = alloca ptr, align 8
  %4 = alloca ptr, align 8
  %5 = tail call i32 @ossl_cipher_generic_get_ctx_params(ptr noundef %0, ptr noundef %1) #5
  %.not = icmp eq i32 %5, 0
  br i1 %.not, label %77, label %6

6:                                                ; preds = %2
  %7 = tail call ptr @OSSL_PARAM_locate(ptr noundef %1, ptr noundef nonnull @.str.1) #5
  %.not54 = icmp eq ptr %7, null
  br i1 %.not54, label %13, label %8

8:                                                ; preds = %6
  %9 = getelementptr inbounds nuw i8, ptr %0, i64 448
  %10 = load i64, ptr %9, align 8, !tbaa !3
  %11 = tail call i32 @OSSL_PARAM_set_size_t(ptr noundef nonnull %7, i64 noundef %10) #5
  %.not55 = icmp eq i32 %11, 0
  br i1 %.not55, label %12, label %13

12:                                               ; preds = %8
  tail call void @ERR_new() #5
  tail call void @ERR_set_debug(ptr noundef nonnull @.str, i32 noundef 115, ptr noundef nonnull @__func__.rc2_get_ctx_params) #5
  tail call void (i32, i32, ptr, ...) @ERR_set_error(i32 noundef 57, i32 noundef 104, ptr noundef null) #5
  br label %77

13:                                               ; preds = %8, %6
  %14 = tail call ptr @OSSL_PARAM_locate(ptr noundef %1, ptr noundef nonnull @.str.2) #5
  %15 = tail call ptr @OSSL_PARAM_locate(ptr noundef %1, ptr noundef nonnull @.str.3) #5
  %16 = icmp ne ptr %14, null
  %17 = icmp ne ptr %15, null
  %or.cond = select i1 %16, i1 true, i1 %17
  br i1 %or.cond, label %18, label %77

18:                                               ; preds = %13
  call void @llvm.lifetime.start.p0(i64 8, ptr nonnull %3) #5
  %19 = icmp eq ptr %14, null
  br i1 %19, label %23, label %20

20:                                               ; preds = %18
  %21 = getelementptr inbounds nuw i8, ptr %14, i64 16
  %22 = load ptr, ptr %21, align 8, !tbaa !22
  br label %23

23:                                               ; preds = %18, %20
  %24 = phi ptr [ %22, %20 ], [ null, %18 ]
  store ptr %24, ptr %3, align 8, !tbaa !19
  call void @llvm.lifetime.start.p0(i64 8, ptr nonnull %4) #5
  %25 = icmp eq ptr %15, null
  br i1 %25, label %29, label %26

26:                                               ; preds = %23
  %27 = getelementptr inbounds nuw i8, ptr %15, i64 16
  %28 = load ptr, ptr %27, align 8, !tbaa !22
  br label %29

29:                                               ; preds = %23, %26
  %30 = phi ptr [ %28, %26 ], [ null, %23 ]
  store ptr %30, ptr %4, align 8, !tbaa !19
  %31 = icmp eq ptr %24, null
  %. = select i1 %31, ptr null, ptr %3
  %32 = icmp eq ptr %30, null
  %33 = select i1 %32, ptr null, ptr %4
  br i1 %16, label %34, label %37

34:                                               ; preds = %29
  %35 = getelementptr inbounds nuw i8, ptr %14, i64 8
  %36 = load i32, ptr %35, align 8, !tbaa !24
  %.not56 = icmp eq i32 %36, 5
  br i1 %.not56, label %37, label %41

37:                                               ; preds = %34, %29
  br i1 %17, label %38, label %42

38:                                               ; preds = %37
  %39 = getelementptr inbounds nuw i8, ptr %15, i64 8
  %40 = load i32, ptr %39, align 8, !tbaa !24
  %.not57 = icmp eq i32 %40, 5
  br i1 %.not57, label %42, label %41

41:                                               ; preds = %38, %34
  tail call void @ERR_new() #5
  tail call void @ERR_set_debug(ptr noundef nonnull @.str, i32 noundef 131, ptr noundef nonnull @__func__.rc2_get_ctx_params) #5
  tail call void (i32, i32, ptr, ...) @ERR_set_error(i32 noundef 57, i32 noundef 104, ptr noundef null) #5
  br label %.critedge

42:                                               ; preds = %38, %37
  %43 = tail call ptr @ASN1_TYPE_new() #5
  %44 = icmp eq ptr %43, null
  br i1 %44, label %45, label %46

45:                                               ; preds = %42
  tail call void @ERR_new() #5
  tail call void @ERR_set_debug(ptr noundef nonnull @.str, i32 noundef 135, ptr noundef nonnull @__func__.rc2_get_ctx_params) #5
  tail call void (i32, i32, ptr, ...) @ERR_set_error(i32 noundef 57, i32 noundef 524301, ptr noundef null) #5
  br label %.critedge

46:                                               ; preds = %42
  %47 = getelementptr inbounds nuw i8, ptr %0, i64 448
  %48 = load i64, ptr %47, align 8, !tbaa !3
  %49 = trunc i64 %48 to i32
  switch i32 %49, label %52 [
    i32 128, label %rc2_keybits_to_magic.exit
    i32 64, label %50
    i32 40, label %51
  ]

50:                                               ; preds = %46
  br label %rc2_keybits_to_magic.exit

51:                                               ; preds = %46
  br label %rc2_keybits_to_magic.exit

52:                                               ; preds = %46
  tail call void @ERR_new() #5
  tail call void @ERR_set_debug(ptr noundef nonnull @.str, i32 noundef 70, ptr noundef nonnull @__func__.rc2_keybits_to_magic) #5
  tail call void (i32, i32, ptr, ...) @ERR_set_error(i32 noundef 57, i32 noundef 153, ptr noundef null) #5
  br label %rc2_keybits_to_magic.exit

rc2_keybits_to_magic.exit:                        ; preds = %46, %50, %51, %52
  %.0.i = phi i64 [ 0, %52 ], [ 160, %51 ], [ 120, %50 ], [ 58, %46 ]
  %53 = getelementptr inbounds nuw i8, ptr %0, i64 32
  %54 = getelementptr inbounds nuw i8, ptr %0, i64 80
  %55 = load i64, ptr %54, align 8, !tbaa !25
  %56 = trunc i64 %55 to i32
  %57 = tail call i32 @ASN1_TYPE_set_int_octetstring(ptr noundef nonnull %43, i64 noundef %.0.i, ptr noundef nonnull %53, i32 noundef %56) #5
  %.not58 = icmp eq i32 %57, 0
  br i1 %.not58, label %58, label %59

58:                                               ; preds = %rc2_keybits_to_magic.exit
  tail call void @ASN1_TYPE_free(ptr noundef nonnull %43) #5
  tail call void @ERR_new() #5
  tail call void @ERR_set_debug(ptr noundef nonnull @.str, i32 noundef 144, ptr noundef nonnull @__func__.rc2_get_ctx_params) #5
  tail call void (i32, i32, ptr, ...) @ERR_set_error(i32 noundef 57, i32 noundef 524301, ptr noundef null) #5
  br label %.critedge

59:                                               ; preds = %rc2_keybits_to_magic.exit
  %60 = call i32 @i2d_ASN1_TYPE(ptr noundef nonnull %43, ptr noundef %.) #5
  %61 = icmp sgt i32 %60, -1
  %or.cond3 = select i1 %16, i1 %61, i1 false
  br i1 %or.cond3, label %62, label %65

62:                                               ; preds = %59
  %63 = zext nneg i32 %60 to i64
  %64 = getelementptr inbounds nuw i8, ptr %14, i64 32
  store i64 %63, ptr %64, align 8, !tbaa !26
  br label %65

65:                                               ; preds = %62, %59
  %66 = load ptr, ptr %3, align 8, !tbaa !19
  %.not59 = icmp eq ptr %66, %30
  br i1 %.not59, label %69, label %67

67:                                               ; preds = %65
  %68 = call i32 @i2d_ASN1_TYPE(ptr noundef nonnull %43, ptr noundef %33) #5
  br label %69

69:                                               ; preds = %67, %65
  %.046 = phi i32 [ %68, %67 ], [ %60, %65 ]
  %70 = icmp sgt i32 %.046, -1
  %or.cond5 = select i1 %17, i1 %70, i1 false
  br i1 %or.cond5, label %.thread, label %73

.thread:                                          ; preds = %69
  %71 = zext nneg i32 %.046 to i64
  %72 = getelementptr inbounds nuw i8, ptr %15, i64 32
  store i64 %71, ptr %72, align 8, !tbaa !26
  call void @ASN1_TYPE_free(ptr noundef nonnull %43) #5
  br label %76

73:                                               ; preds = %69
  call void @ASN1_TYPE_free(ptr noundef nonnull %43) #5
  %74 = icmp slt i32 %.046, 0
  br i1 %74, label %75, label %76

75:                                               ; preds = %73
  call void @ERR_new() #5
  call void @ERR_set_debug(ptr noundef nonnull @.str, i32 noundef 167, ptr noundef nonnull @__func__.rc2_get_ctx_params) #5
  call void (i32, i32, ptr, ...) @ERR_set_error(i32 noundef 57, i32 noundef 104, ptr noundef null) #5
  br label %.critedge

76:                                               ; preds = %.thread, %73
  call void @llvm.lifetime.end.p0(i64 8, ptr nonnull %4) #5
  call void @llvm.lifetime.end.p0(i64 8, ptr nonnull %3) #5
  br label %77

.critedge:                                        ; preds = %58, %75, %45, %41
  call void @llvm.lifetime.end.p0(i64 8, ptr nonnull %4) #5
  call void @llvm.lifetime.end.p0(i64 8, ptr nonnull %3) #5
  br label %77

77:                                               ; preds = %13, %76, %.critedge, %2, %12
  %.0 = phi i32 [ 0, %12 ], [ 0, %2 ], [ 0, %.critedge ], [ 1, %76 ], [ 1, %13 ]
  ret i32 %.0
}